; Function Attrs: mustprogress uwtable
define hidden void @_ZN4cvc58internal11NodeBuilder13decrRefCountsEv(ptr noundef nonnull align 8 dereferenceable(116) %this) local_unnamed_addr #3 align 2 {
entry:
  %d_children.i.ptr = getelementptr inbounds i8, ptr %this, i64 16
  %d_nchildren.i = getelementptr inbounds i8, ptr %this, i64 12
  %bf.load.i5 = load i32, ptr %d_nchildren.i, align 4
  %bf.clear.i6 = and i32 %bf.load.i5, 67108863
  %cmp.not9 = icmp eq i32 %bf.clear.i6, 0
  br i1 %cmp.not9, label %for.end, label %for.body

for.body:                                         ; preds = %entry, %_ZN4cvc58internal4expr9NodeValue3decEv.exit
  %i.010 = phi ptr [ %incdec.ptr, %_ZN4cvc58internal4expr9NodeValue3decEv.exit ], [ %d_children.i.ptr, %entry ]
  %0 = load ptr, ptr %i.010, align 8
  %bf.load.i4 = load i64, ptr %0, align 8
  %1 = and i64 %bf.load.i4, 1152920405095219200
  %cmp.not.i = icmp eq i64 %1, 1152920405095219200
  br i1 %cmp.not.i, label %_ZN4cvc58internal4expr9NodeValue3decEv.exit, label %if.then.i

if.then.i:                                        ; preds = %for.body
  %bf.value.i = add i64 %bf.load.i4, 1152920405095219200
  %bf.shl.i = and i64 %bf.value.i, 1152920405095219200
  %bf.clear7.i = and i64 %bf.load.i4, -1152920405095219201
  %bf.set.i = or disjoint i64 %bf.shl.i, %bf.clear7.i
  store i64 %bf.set.i, ptr %0, align 8
  %cmp12.i = icmp eq i64 %bf.shl.i, 0
  br i1 %cmp12.i, label %if.then13.i, label %_ZN4cvc58internal4expr9NodeValue3decEv.exit

if.then13.i:                                      ; preds = %if.then.i
  tail call void @_ZN4cvc58internal4expr9NodeValue15markForDeletionEv(ptr noundef nonnull align 8 dereferenceable(16) %0)
  br label %_ZN4cvc58internal4expr9NodeValue3decEv.exit

_ZN4cvc58internal4expr9NodeValue3decEv.exit:      ; preds = %for.body, %if.then.i, %if.then13.i
  %incdec.ptr = getelementptr inbounds i8, ptr %i.010, i64 8
  %bf.load.i = load i32, ptr %d_nchildren.i, align 4
  %bf.clear.i = and i32 %bf.load.i, 67108863
  %idx.ext.i = zext nneg i32 %bf.clear.i to i64
  %add.ptr.i = getelementptr inbounds ptr, ptr %d_children.i.ptr, i64 %idx.ext.i
  %cmp.not = icmp eq ptr %incdec.ptr, %add.ptr.i
  br i1 %cmp.not, label %for.end, label %for.body, !llvm.loop !7

for.end:                                          ; preds = %_ZN4cvc58internal4expr9NodeValue3decEv.exit, %entry
  %bf.load.i.lcssa = phi i32 [ %bf.load.i5, %entry ], [ %bf.load.i, %_ZN4cvc58internal4expr9NodeValue3decEv.exit ]
  %bf.clear = and i32 %bf.load.i.lcssa, -67108864
  store i32 %bf.clear, ptr %d_nchildren.i, align 4
  ret void
}